; Function Attrs: mustprogress uwtable
define void @_ZN6icu_7713DecimalFormat10setLenientEa(ptr noundef nonnull align 8 dereferenceable(72) %0, i8 noundef signext %1) unnamed_addr #1 align 2 {
  %3 = alloca i32, align 4
  %4 = getelementptr inbounds nuw i8, ptr %0, i64 64
  %5 = load ptr, ptr %4, align 8, !tbaa !25
  %6 = icmp eq ptr %5, null
  br i1 %6, label %20, label %7

7:                                                ; preds = %2
  %.not = icmp eq i8 %1, 0
  %8 = zext i1 %.not to i32
  %9 = getelementptr inbounds nuw i8, ptr %5, i64 468
  %10 = load i8, ptr %9, align 4, !tbaa !140, !range !45, !noundef !49
  %11 = trunc nuw i8 %10 to i1
  br i1 %11, label %16, label %12

12:                                               ; preds = %7
  %13 = getelementptr inbounds nuw i8, ptr %5, i64 472
  %14 = load i32, ptr %13, align 4, !tbaa !141
  %15 = icmp eq i32 %14, %8
  br i1 %15, label %20, label %16

16:                                               ; preds = %12, %7
  tail call void @_ZN6icu_7712NumberFormat10setLenientEa(ptr noundef nonnull align 8 dereferenceable(60) %0, i8 noundef signext %1)
  %17 = load ptr, ptr %4, align 8, !tbaa !25
  %18 = getelementptr inbounds nuw i8, ptr %17, i64 468
  %19 = getelementptr inbounds nuw i8, ptr %17, i64 472
  store i32 %8, ptr %19, align 4, !tbaa !141
  store i8 0, ptr %18, align 4, !tbaa !140
  call void @llvm.lifetime.start.p0(i64 4, ptr nonnull %3) #19
  store i32 0, ptr %3, align 4, !tbaa !13
  call void @_ZN6icu_7713DecimalFormat5touchER10UErrorCode(ptr noundef nonnull align 8 dereferenceable(72) %0, ptr noundef nonnull align 4 dereferenceable(4) %3)
  call void @llvm.lifetime.end.p0(i64 4, ptr nonnull %3) #19
  br label %20

20:                                               ; preds = %16, %12, %2
  ret void
}